; Function Attrs: nounwind sspstrong uwtable
define i64 @ossl_x509_new(ptr noundef %0) local_unnamed_addr #0 {
  %2 = load i64, ptr @cX509Cert, align 8, !tbaa !6
  %3 = tail call i64 @rb_data_typed_object_wrap(i64 noundef %2, ptr noundef null, ptr noundef nonnull @ossl_x509_type) #5
  %.not = icmp eq ptr %0, null
  br i1 %.not, label %4, label %6

4:                                                ; preds = %1
  %5 = tail call ptr @X509_new() #5
  br label %8

6:                                                ; preds = %1
  %7 = tail call ptr @X509_dup(ptr noundef nonnull %0) #5
  br label %8

8:                                                ; preds = %6, %4
  %.0 = phi ptr [ %7, %6 ], [ %5, %4 ]
  %.not7 = icmp eq ptr %.0, null
  br i1 %.not7, label %9, label %11

9:                                                ; preds = %8
  %10 = load i64, ptr @eX509CertError, align 8, !tbaa !6
  tail call void (i64, ptr, ...) @ossl_raise(i64 noundef %10, ptr noundef null) #6
  unreachable

11:                                               ; preds = %8
  %12 = inttoptr i64 %3 to ptr
  %13 = getelementptr inbounds nuw i8, ptr %12, i64 32
  store ptr %.0, ptr %13, align 8, !tbaa !10
  ret i64 %3
}